; Function Attrs: nounwind uwtable
define dso_local range(i32 -1, 1) i32 @job_submit_g_init(i1 noundef zeroext %0) local_unnamed_addr #0 {
  %2 = alloca ptr, align 8
  %3 = alloca ptr, align 8
  %4 = alloca ptr, align 8
  call void @llvm.lifetime.start.p0(i64 8, ptr nonnull %2) #9
  store ptr null, ptr %2, align 8
  call void @llvm.lifetime.start.p0(i64 8, ptr nonnull %3) #9
  call void @llvm.lifetime.start.p0(i64 8, ptr nonnull %4) #9
  br i1 %0, label %9, label %5

5:                                                ; preds = %1
  %6 = tail call i32 @pthread_rwlock_wrlock(ptr noundef nonnull @context_lock) #9
  %.not = icmp eq i32 %6, 0
  br i1 %.not, label %9, label %7

7:                                                ; preds = %5
  %8 = tail call ptr @__errno_location() #10
  store i32 %6, ptr %8, align 4
  tail call void (ptr, ...) @fatal_abort(ptr noundef nonnull @.str.1, ptr noundef nonnull @__func__.job_submit_g_init) #11
  unreachable

9:                                                ; preds = %5, %1
  %10 = load i32, ptr @g_context_cnt, align 4
  %11 = icmp sgt i32 %10, -1
  br i1 %11, label %job_submit_g_fini.exit, label %12

12:                                               ; preds = %9
  store i32 0, ptr @g_context_cnt, align 4
  %13 = load ptr, ptr getelementptr inbounds nuw (i8, ptr @slurm_conf, i64 584), align 8
  %.not14 = icmp eq ptr %13, null
  br i1 %.not14, label %job_submit_g_fini.exit, label %14

14:                                               ; preds = %12
  %15 = load i8, ptr %13, align 1
  %16 = icmp eq i8 %15, 0
  br i1 %16, label %job_submit_g_fini.exit, label %17

17:                                               ; preds = %14
  %18 = tail call ptr @xstrdup(ptr noundef nonnull %13) #9
  store ptr %18, ptr %3, align 8
  %19 = call ptr @strtok_r(ptr noundef %18, ptr noundef nonnull @.str.2, ptr noundef nonnull %2) #9
  store ptr %19, ptr %4, align 8
  %.not1525 = icmp eq ptr %19, null
  br i1 %.not1525, label %.thread22, label %.lr.ph

.thread22:                                        ; preds = %48, %17
  call void @slurm_xfree(ptr noundef nonnull %3) #9
  br label %job_submit_g_fini.exit

.lr.ph:                                           ; preds = %17, %48
  %20 = load i32, ptr @g_context_cnt, align 4
  %21 = add nsw i32 %20, 1
  %22 = sext i32 %21 to i64
  %23 = call ptr @slurm_xrecalloc(ptr noundef nonnull @ops, i64 noundef %22, i64 noundef 16, i1 noundef zeroext true, i1 noundef zeroext false, ptr noundef nonnull @.str.3, i32 noundef 105, ptr noundef nonnull @__func__.job_submit_g_init) #9
  %24 = load i32, ptr @g_context_cnt, align 4
  %25 = add nsw i32 %24, 1
  %26 = sext i32 %25 to i64
  %27 = call ptr @slurm_xrecalloc(ptr noundef nonnull @g_context, i64 noundef %26, i64 noundef 8, i1 noundef zeroext true, i1 noundef zeroext false, ptr noundef nonnull @.str.3, i32 noundef 107, ptr noundef nonnull @__func__.job_submit_g_init) #9
  %28 = load ptr, ptr %4, align 8
  %29 = call i32 @xstrncmp(ptr noundef %28, ptr noundef nonnull @.str.4, i64 noundef 11) #9
  %30 = icmp eq i32 %29, 0
  %.pre = load ptr, ptr %4, align 8
  br i1 %30, label %31, label %33

31:                                               ; preds = %.lr.ph
  %32 = getelementptr inbounds nuw i8, ptr %.pre, i64 11
  store ptr %32, ptr %4, align 8
  br label %33

33:                                               ; preds = %31, %.lr.ph
  %34 = phi ptr [ %32, %31 ], [ %.pre, %.lr.ph ]
  %35 = call ptr (ptr, ...) @xstrdup_printf(ptr noundef nonnull @.str.5, ptr noundef %34) #9
  store ptr %35, ptr %4, align 8
  %36 = load ptr, ptr @ops, align 8
  %37 = load i32, ptr @g_context_cnt, align 4
  %38 = sext i32 %37 to i64
  %39 = getelementptr inbounds %struct.slurm_submit_ops, ptr %36, i64 %38
  %40 = call ptr @plugin_context_create(ptr noundef nonnull @.str, ptr noundef %35, ptr noundef %39, ptr noundef nonnull @syms, i64 noundef 16) #9
  %41 = load ptr, ptr @g_context, align 8
  %42 = load i32, ptr @g_context_cnt, align 4
  %43 = sext i32 %42 to i64
  %44 = getelementptr inbounds ptr, ptr %41, i64 %43
  store ptr %40, ptr %44, align 8
  %45 = load ptr, ptr @g_context, align 8
  %46 = getelementptr inbounds ptr, ptr %45, i64 %43
  %47 = load ptr, ptr %46, align 8
  %.not16 = icmp eq ptr %47, null
  br i1 %.not16, label %52, label %48

48:                                               ; preds = %33
  call void @slurm_xfree(ptr noundef nonnull %4) #9
  %49 = load i32, ptr @g_context_cnt, align 4
  %50 = add nsw i32 %49, 1
  store i32 %50, ptr @g_context_cnt, align 4
  %51 = call ptr @strtok_r(ptr noundef null, ptr noundef nonnull @.str.2, ptr noundef nonnull %2) #9
  store ptr %51, ptr %4, align 8
  %.not15 = icmp eq ptr %51, null
  br i1 %.not15, label %.thread22, label %.lr.ph, !llvm.loop !8

52:                                               ; preds = %33
  %53 = load ptr, ptr %4, align 8
  %54 = call i32 (ptr, ...) @error(ptr noundef nonnull @.str.6, ptr noundef nonnull @.str, ptr noundef %53) #9
  call void @slurm_xfree(ptr noundef nonnull %4) #9
  call void @slurm_xfree(ptr noundef nonnull %3) #9
  %55 = load i32, ptr @g_context_cnt, align 4
  %56 = icmp slt i32 %55, 0
  br i1 %56, label %job_submit_g_fini.exit, label %.preheader.i

.preheader.i:                                     ; preds = %52
  %.not26.i = icmp eq i32 %55, 0
  br i1 %.not26.i, label %._crit_edge.i, label %.lr.ph.preheader.i

.lr.ph.preheader.i:                               ; preds = %.preheader.i
  %.pre24.i = load ptr, ptr @g_context, align 8
  br label %.lr.ph.i

.lr.ph.i:                                         ; preds = %63, %.lr.ph.preheader.i
  %57 = phi i32 [ %55, %.lr.ph.preheader.i ], [ %64, %63 ]
  %58 = phi ptr [ %.pre24.i, %.lr.ph.preheader.i ], [ %65, %63 ]
  %indvars.iv.i = phi i64 [ 0, %.lr.ph.preheader.i ], [ %indvars.iv.next.i, %63 ]
  %59 = getelementptr inbounds nuw ptr, ptr %58, i64 %indvars.iv.i
  %60 = load ptr, ptr %59, align 8
  %.not18.i = icmp eq ptr %60, null
  br i1 %.not18.i, label %63, label %61

61:                                               ; preds = %.lr.ph.i
  %62 = call i32 @plugin_context_destroy(ptr noundef nonnull %60) #9
  %.pre.i = load ptr, ptr @g_context, align 8
  %.pre25.i = load i32, ptr @g_context_cnt, align 4
  br label %63

63:                                               ; preds = %61, %.lr.ph.i
  %64 = phi i32 [ %57, %.lr.ph.i ], [ %.pre25.i, %61 ]
  %65 = phi ptr [ %58, %.lr.ph.i ], [ %.pre.i, %61 ]
  %indvars.iv.next.i = add nuw nsw i64 %indvars.iv.i, 1
  %66 = sext i32 %64 to i64
  %67 = icmp slt i64 %indvars.iv.next.i, %66
  br i1 %67, label %.lr.ph.i, label %._crit_edge.i, !llvm.loop !11

._crit_edge.i:                                    ; preds = %63, %.preheader.i
  call void @slurm_xfree(ptr noundef nonnull @ops) #9
  call void @slurm_xfree(ptr noundef nonnull @g_context) #9
  store i32 -1, ptr @g_context_cnt, align 4
  br label %job_submit_g_fini.exit

job_submit_g_fini.exit:                           ; preds = %12, %14, %9, %._crit_edge.i, %52, %.thread22
  %.021 = phi i32 [ 0, %.thread22 ], [ -1, %52 ], [ -1, %._crit_edge.i ], [ 0, %9 ], [ 0, %14 ], [ 0, %12 ]
  br i1 %0, label %72, label %68

68:                                               ; preds = %job_submit_g_fini.exit
  %69 = call i32 @pthread_rwlock_unlock(ptr noundef nonnull @context_lock) #9
  %.not18 = icmp eq i32 %69, 0
  br i1 %.not18, label %72, label %70

70:                                               ; preds = %68
  %71 = tail call ptr @__errno_location() #10
  store i32 %69, ptr %71, align 4
  call void (ptr, ...) @fatal_abort(ptr noundef nonnull @.str.7, ptr noundef nonnull @__func__.job_submit_g_init) #11
  unreachable

72:                                               ; preds = %68, %job_submit_g_fini.exit
  call void @llvm.lifetime.end.p0(i64 8, ptr nonnull %4) #9
  call void @llvm.lifetime.end.p0(i64 8, ptr nonnull %3) #9
  call void @llvm.lifetime.end.p0(i64 8, ptr nonnull %2) #9
  ret i32 %.021
}